; Function Attrs: nounwind uwtable
define hidden ptr @_PyUnicode_GetNameCAPI() local_unnamed_addr #0 {
  %1 = tail call align 8 ptr @llvm.threadlocal.address.p0(ptr align 8 @_Py_tss_tstate)
  %2 = load ptr, ptr %1, align 8, !tbaa !4
  %3 = getelementptr inbounds nuw i8, ptr %2, i64 16
  %4 = load ptr, ptr %3, align 8, !tbaa !9
  %5 = getelementptr inbounds nuw i8, ptr %4, i64 11632
  %6 = load atomic i64, ptr %5 seq_cst, align 8
  %7 = inttoptr i64 %6 to ptr
  %8 = icmp eq i64 %6, 0
  br i1 %8, label %9, label %12

9:                                                ; preds = %0
  %10 = tail call ptr @PyCapsule_Import(ptr noundef nonnull @.str.87, i32 noundef 1) #41
  %11 = ptrtoint ptr %10 to i64
  store atomic i64 %11, ptr %5 seq_cst, align 8
  br label %12

12:                                               ; preds = %9, %0
  %.0 = phi ptr [ %10, %9 ], [ %7, %0 ]
  ret ptr %.0
}